target datalayout = "e-m:e-p270:32:32-p271:32:32-p272:64:64-i64:64-i128:128-f80:128-n8:16:32:64-S128"
target triple = "x86_64-pc-linux-gnu"

%struct.ImVector = type { i32, i32, ptr }
%struct.ImVector.0 = type { i32, i32, ptr }
%struct.ImVector.2 = type { i32, i32, ptr }
%struct.ImGuiStorage = type { %struct.ImVector.4 }
%struct.ImVector.4 = type { i32, i32, ptr }
%struct.ImVector.15 = type { i32, i32, ptr }
%struct.ImVector.19 = type { i32, i32, ptr }
%struct.ImVector.20 = type { i32, i32, ptr }
%struct.ImRect = type { %struct.ImVec2, %struct.ImVec2 }
%struct.ImVector.30 = type { i32, i32, ptr }
%struct.ImVec2 = type { float, float }
%struct.ImVec4 = type { float, float, float, float }
%struct.ImDrawListSplitter = type { i32, i32, %struct.ImVector.20 }
%struct.ImVec1 = type { float }
%struct.ImGuiWindow = type <{ ptr, ptr, i32, i32, i32, [4 x i8], ptr, %struct.ImVec2, %struct.ImVec2, %struct.ImVec2, %struct.ImVec2, %struct.ImVec2, %struct.ImVec2, %struct.ImVec2, float, float, float, float, float, float, float, float, float, float, i32, i32, i32, i32, %struct.ImVec2, %struct.ImVec2, %struct.ImVec2, %struct.ImVec2, %struct.ImVec2, %struct.ImVec2, i8, i8, i8, i8, i8, i8, i8, i8, i8, i8, i8, i8, i8, i8, i8, i8, i16, i16, i16, i16, i16, i8, i8, i8, [3 x i8], i32, i8, i8, i8, i8, i32, %struct.ImVec2, %struct.ImVec2, [4 x i8], %struct.ImVector.30, %struct.ImGuiWindowTempData, %struct.ImRect, %struct.ImRect, %struct.ImRect, %struct.ImRect, %struct.ImRect, %struct.ImRect, %struct.ImRect, %struct.ImVec2ih, %struct.ImVec2ih, i32, float, float, [4 x i8], %struct.ImGuiStorage, %struct.ImVector.35, float, float, float, i32, ptr, %struct.ImDrawList, ptr, ptr, ptr, ptr, ptr, ptr, ptr, ptr, [2 x i32], [2 x %struct.ImRect], [2 x %struct.ImVec2], i32, i32, i32, i8, [3 x i8] }>
%struct.ImGuiWindowTempData = type { %struct.ImVec2, %struct.ImVec2, %struct.ImVec2, %struct.ImVec2, %struct.ImVec2, %struct.ImVec2, %struct.ImVec2, float, float, i8, i8, %struct.ImVec1, %struct.ImVec1, %struct.ImVec1, %struct.ImVec2, i32, i16, i16, i8, i8, i8, i8, %struct.ImVec2, %struct.ImGuiMenuColumns, i32, i32, %struct.ImVector.2, ptr, ptr, i32, i32, i32, i32, i32, i32, float, float, %struct.ImVector.19, %struct.ImVector.19 }
%struct.ImGuiMenuColumns = type <{ i32, i32, i16, i16, i16, i16, i16, [4 x i16], [2 x i8] }>
%struct.ImVec2ih = type { i16, i16 }
%struct.ImVector.35 = type { i32, i32, ptr }
%struct.ImDrawList = type { %struct.ImVector.36, %struct.ImVector, %struct.ImVector.37, i32, i32, ptr, ptr, ptr, %struct.ImVector.0, %struct.ImDrawCmdHeader, %struct.ImDrawListSplitter, %struct.ImVector.38, %struct.ImVector.39, %struct.ImVector.15, float, ptr }
%struct.ImVector.36 = type { i32, i32, ptr }
%struct.ImVector.37 = type { i32, i32, ptr }
%struct.ImDrawCmdHeader = type <{ %struct.ImVec4, i64, i32, [4 x i8] }>
%struct.ImVector.38 = type { i32, i32, ptr }
%struct.ImVector.39 = type { i32, i32, ptr }

; Function Attrs: mustprogress nounwind uwtable
define linkonce_odr void @_ZN6ImVec4C2Effff(ptr noundef nonnull align 4 dereferenceable(16) %0, float noundef %1, float noundef %2, float noundef %3, float noundef %4) unnamed_addr #7 comdat align 2 {
  %6 = alloca ptr, align 8
  %7 = alloca float, align 4
  %8 = alloca float, align 4
  %9 = alloca float, align 4
  %10 = alloca float, align 4
  store ptr %0, ptr %6, align 8, !tbaa !531
  store float %1, ptr %7, align 4, !tbaa !16
  store float %2, ptr %8, align 4, !tbaa !16
  store float %3, ptr %9, align 4, !tbaa !16
  store float %4, ptr %10, align 4, !tbaa !16
  %11 = load ptr, ptr %6, align 8
  %12 = getelementptr inbounds nuw %struct.ImVec4, ptr %11, i32 0, i32 0
  %13 = load float, ptr %7, align 4, !tbaa !16
  store float %13, ptr %12, align 4, !tbaa !532
  %14 = getelementptr inbounds nuw %struct.ImVec4, ptr %11, i32 0, i32 1
  %15 = load float, ptr %8, align 4, !tbaa !16
  store float %15, ptr %14, align 4, !tbaa !533
  %16 = getelementptr inbounds nuw %struct.ImVec4, ptr %11, i32 0, i32 2
  %17 = load float, ptr %9, align 4, !tbaa !16
  store float %17, ptr %16, align 4, !tbaa !534
  %18 = getelementptr inbounds nuw %struct.ImVec4, ptr %11, i32 0, i32 3
  %19 = load float, ptr %10, align 4, !tbaa !16
  store float %19, ptr %18, align 4, !tbaa !535
  ret void
}

; Function Attrs: mustprogress uwtable
define linkonce_odr { <2 x float>, <2 x float> } @_ZNK6ImRect6ToVec4Ev(ptr noundef nonnull align 4 dereferenceable(16) %0) #0 comdat align 2 {
  %2 = alloca %struct.ImVec4, align 4
  %3 = alloca ptr, align 8
  store ptr %0, ptr %3, align 8, !tbaa !301
  %4 = load ptr, ptr %3, align 8
  %5 = getelementptr inbounds nuw %struct.ImRect, ptr %4, i32 0, i32 0
  %6 = getelementptr inbounds nuw %struct.ImVec2, ptr %5, i32 0, i32 0
  %7 = load float, ptr %6, align 4, !tbaa !331
  %8 = getelementptr inbounds nuw %struct.ImRect, ptr %4, i32 0, i32 0
  %9 = getelementptr inbounds nuw %struct.ImVec2, ptr %8, i32 0, i32 1
  %10 = load float, ptr %9, align 4, !tbaa !333
  %11 = getelementptr inbounds nuw %struct.ImRect, ptr %4, i32 0, i32 1
  %12 = getelementptr inbounds nuw %struct.ImVec2, ptr %11, i32 0, i32 0
  %13 = load float, ptr %12, align 4, !tbaa !330
  %14 = getelementptr inbounds nuw %struct.ImRect, ptr %4, i32 0, i32 1
  %15 = getelementptr inbounds nuw %struct.ImVec2, ptr %14, i32 0, i32 1
  %16 = load float, ptr %15, align 4, !tbaa !332
  call void @_ZN6ImVec4C2Effff(ptr noundef nonnull align 4 dereferenceable(16) %2, float noundef %7, float noundef %10, float noundef %13, float noundef %16)
  %17 = load { <2 x float>, <2 x float> }, ptr %2, align 4
  ret { <2 x float>, <2 x float> } %17
}

; Function Attrs: mustprogress uwtable
define void @_ZN5ImGui33SetWindowClipRectBeforeSetChannelEP11ImGuiWindowRK6ImRect(ptr noundef %0, ptr noundef nonnull align 4 dereferenceable(16) %1) #3 {
  %3 = alloca ptr, align 8
  %4 = alloca ptr, align 8
  %5 = alloca %struct.ImVec4, align 4
  store ptr %0, ptr %3, align 8, !tbaa !18
  store ptr %1, ptr %4, align 8, !tbaa !301
  call void @llvm.lifetime.start.p0(i64 16, ptr %5) #8
  %6 = load ptr, ptr %4, align 8, !tbaa !301
  %7 = call { <2 x float>, <2 x float> } @_ZNK6ImRect6ToVec4Ev(ptr noundef nonnull align 4 dereferenceable(16) %6)
  %8 = getelementptr inbounds nuw { <2 x float>, <2 x float> }, ptr %5, i32 0, i32 0
  %9 = extractvalue { <2 x float>, <2 x float> } %7, 0
  store <2 x float> %9, ptr %8, align 4
  %10 = getelementptr inbounds nuw { <2 x float>, <2 x float> }, ptr %5, i32 0, i32 1
  %11 = extractvalue { <2 x float>, <2 x float> } %7, 1
  store <2 x float> %11, ptr %10, align 4
  %12 = load ptr, ptr %4, align 8, !tbaa !301
  %13 = load ptr, ptr %3, align 8, !tbaa !18
  %14 = getelementptr inbounds nuw %struct.ImGuiWindow, ptr %13, i32 0, i32 75
  call void @llvm.memcpy.p0.p0.i64(ptr align 8 %14, ptr align 4 %12, i64 16, i1 false), !tbaa.struct !212
  %15 = load ptr, ptr %3, align 8, !tbaa !18
  %16 = getelementptr inbounds nuw %struct.ImGuiWindow, ptr %15, i32 0, i32 89
  %17 = load ptr, ptr %16, align 8, !tbaa !474
  %18 = getelementptr inbounds nuw %struct.ImDrawList, ptr %17, i32 0, i32 9
  %19 = getelementptr inbounds nuw %struct.ImDrawCmdHeader, ptr %18, i32 0, i32 0
  call void @llvm.memcpy.p0.p0.i64(ptr align 8 %19, ptr align 4 %5, i64 16, i1 false), !tbaa.struct !212
  %20 = load ptr, ptr %3, align 8, !tbaa !18
  %21 = getelementptr inbounds nuw %struct.ImGuiWindow, ptr %20, i32 0, i32 89
  %22 = load ptr, ptr %21, align 8, !tbaa !474
  %23 = getelementptr inbounds nuw %struct.ImDrawList, ptr %22, i32 0, i32 11
  %24 = getelementptr inbounds nuw %struct.ImVector.38, ptr %23, i32 0, i32 2
  %25 = load ptr, ptr %24, align 8, !tbaa !578
  %26 = load ptr, ptr %3, align 8, !tbaa !18
  %27 = getelementptr inbounds nuw %struct.ImGuiWindow, ptr %26, i32 0, i32 89
  %28 = load ptr, ptr %27, align 8, !tbaa !474
  %29 = getelementptr inbounds nuw %struct.ImDrawList, ptr %28, i32 0, i32 11
  %30 = getelementptr inbounds nuw %struct.ImVector.38, ptr %29, i32 0, i32 0
  %31 = load i32, ptr %30, align 8, !tbaa !579
  %32 = sub nsw i32 %31, 1
  %33 = sext i32 %32 to i64
  %34 = getelementptr inbounds %struct.ImVec4, ptr %25, i64 %33
  call void @llvm.memcpy.p0.p0.i64(ptr align 4 %34, ptr align 4 %5, i64 16, i1 false), !tbaa.struct !212
  call void @llvm.lifetime.end.p0(i64 16, ptr %5) #8
  ret void
}