; Function Attrs: mustprogress nofree norecurse nosync nounwind willreturn memory(readwrite, inaccessiblemem: none) uwtable
define void @_ZN5ImGui33SetWindowClipRectBeforeSetChannelEP11ImGuiWindowRK6ImRect(ptr noundef captures(none) initializes((600, 616)) %0, ptr noundef nonnull readonly align 4 captures(none) dereferenceable(16) %1) local_unnamed_addr #16 {
  %3 = load <4 x float>, ptr %1, align 4
  %.sroa.0.4.vec.insert.i = shufflevector <4 x float> %3, <4 x float> poison, <2 x i32> <i32 0, i32 1>
  %.sroa.3.12.vec.insert.i = shufflevector <4 x float> %3, <4 x float> poison, <2 x i32> <i32 2, i32 3>
  %4 = getelementptr inbounds nuw i8, ptr %0, i64 600
  tail call void @llvm.memcpy.p0.p0.i64(ptr noundef nonnull align 8 dereferenceable(16) %4, ptr noundef nonnull align 4 dereferenceable(16) %1, i64 16, i1 false), !tbaa.struct !222
  %5 = getelementptr inbounds nuw i8, ptr %0, i64 704
  %6 = load ptr, ptr %5, align 8, !tbaa !437
  %7 = getelementptr inbounds nuw i8, ptr %6, i64 96
  store <2 x float> %.sroa.0.4.vec.insert.i, ptr %7, align 8
  %.sroa.5.0..sroa_idx = getelementptr inbounds nuw i8, ptr %6, i64 104
  store <2 x float> %.sroa.3.12.vec.insert.i, ptr %.sroa.5.0..sroa_idx, align 8
  %8 = load ptr, ptr %5, align 8, !tbaa !437
  %9 = getelementptr inbounds nuw i8, ptr %8, i64 152
  %10 = getelementptr inbounds nuw i8, ptr %8, i64 160
  %11 = load ptr, ptr %10, align 8, !tbaa !507
  %12 = load i32, ptr %9, align 8, !tbaa !508
  %13 = sext i32 %12 to i64
  %14 = getelementptr %struct.ImVec4, ptr %11, i64 %13
  %15 = getelementptr i8, ptr %14, i64 -16
  store <2 x float> %.sroa.0.4.vec.insert.i, ptr %15, align 4
  %.sroa.5.0..sroa_idx2 = getelementptr i8, ptr %14, i64 -8
  store <2 x float> %.sroa.3.12.vec.insert.i, ptr %.sroa.5.0..sroa_idx2, align 4
  ret void
}